target datalayout = "e-m:e-p270:32:32-p271:32:32-p272:64:64-i64:64-i128:128-f80:128-n8:16:32:64-S128"
target triple = "x86_64-unknown-linux-gnu"

@.str = private unnamed_addr constant [21 x i8] c"../qemu/util/async.c\00", align 1
@.str.7 = private unnamed_addr constant [21 x i8] c"!get_my_aiocontext()\00", align 1
@__PRETTY_FUNCTION__.qemu_set_current_aio_context = private unnamed_addr constant [48 x i8] c"void qemu_set_current_aio_context(AioContext *)\00", align 1
@co_tls_my_aiocontext = internal thread_local global ptr null, align 8

; Function Attrs: nounwind sspstrong uwtable
define internal void @set_my_aiocontext(ptr noundef %v) #0 {
entry:
  %v.addr = alloca ptr, align 8
  store ptr %v, ptr %v.addr, align 8
  call void asm sideeffect "", "~{dirflag},~{fpsr},~{flags}"() #11, !srcloc !21
  %0 = load ptr, ptr %v.addr, align 8
  %1 = call align 8 ptr @llvm.threadlocal.address.p0(ptr align 8 @co_tls_my_aiocontext)
  store ptr %0, ptr %1, align 8
  ret void
}

; Function Attrs: nounwind sspstrong uwtable
define internal ptr @get_my_aiocontext() #0 {
entry:
  call void asm sideeffect "", "~{dirflag},~{fpsr},~{flags}"() #11, !srcloc !20
  %0 = call align 8 ptr @llvm.threadlocal.address.p0(ptr align 8 @co_tls_my_aiocontext)
  %1 = load ptr, ptr %0, align 8
  ret ptr %1
}

; Function Attrs: nounwind sspstrong uwtable
define dso_local void @qemu_set_current_aio_context(ptr noundef %ctx) #0 {
entry:
  %ctx.addr = alloca ptr, align 8
  store ptr %ctx, ptr %ctx.addr, align 8
  %call = call ptr @get_my_aiocontext()
  %tobool = icmp ne ptr %call, null
  br i1 %tobool, label %if.else, label %if.then

if.then:                                          ; preds = %entry
  br label %if.end

if.else:                                          ; preds = %entry
  call void @__assert_fail(ptr noundef @.str.7, ptr noundef @.str, i32 noundef 753, ptr noundef @__PRETTY_FUNCTION__.qemu_set_current_aio_context) #12
  unreachable

if.end:                                           ; preds = %if.then
  %0 = load ptr, ptr %ctx.addr, align 8
  call void @set_my_aiocontext(ptr noundef %0)
  ret void
}