; Function Attrs: nounwind sspstrong uwtable
define dso_local void @qemu_set_current_aio_context(ptr noundef %ctx) local_unnamed_addr #0 {
entry:
  tail call void asm sideeffect "", "~{dirflag},~{fpsr},~{flags}"() #13, !srcloc !19
  %0 = tail call align 8 ptr @llvm.threadlocal.address.p0(ptr align 8 @co_tls_my_aiocontext)
  %1 = load ptr, ptr %0, align 8
  %tobool.not = icmp eq ptr %1, null
  br i1 %tobool.not, label %if.end, label %if.else

if.else:                                          ; preds = %entry
  tail call void @__assert_fail(ptr noundef nonnull @.str.7, ptr noundef nonnull @.str, i32 noundef 753, ptr noundef nonnull @__PRETTY_FUNCTION__.qemu_set_current_aio_context) #14
  unreachable

if.end:                                           ; preds = %entry
  tail call void asm sideeffect "", "~{dirflag},~{fpsr},~{flags}"() #13, !srcloc !21
  store ptr %ctx, ptr %0, align 8
  ret void
}